target datalayout = "e-m:e-p270:32:32-p271:32:32-p272:64:64-i64:64-i128:128-f80:128-n8:16:32:64-S128"
target triple = "x86_64-unknown-linux-gnu"

%struct.MonitorHMP = type { %struct.Monitor, i8, ptr }
%struct.Monitor = type { %struct.CharBackend, i32, i8, i8, i8, ptr, %union.anon, %struct.QemuMutex, %struct.anon, ptr, i32, i32, i32 }
%struct.CharBackend = type { ptr, ptr, ptr, ptr, ptr, ptr, i32, i32 }
%union.anon = type { %struct.QTailQLink }
%struct.QTailQLink = type { ptr, ptr }
%struct.QemuMutex = type { %union.pthread_mutex_t, i8 }
%union.pthread_mutex_t = type { %struct.__pthread_mutex_s }
%struct.__pthread_mutex_s = type { i32, i32, i32, i32, i32, i16, i16, %struct.__pthread_internal_list }
%struct.__pthread_internal_list = type { ptr, ptr }
%struct.anon = type { ptr }
%struct.stat = type { i64, i64, i64, i32, i32, i32, i32, i64, i64, i64, i64, %struct.timespec, %struct.timespec, %struct.timespec, [3 x i64] }
%struct.timespec = type { i64, i64 }
%struct.dirent = type { i64, i64, i16, i8, [256 x i8] }

@.str.61 = private unnamed_addr constant [2 x i8] c".\00", align 1
@.str.62 = private unnamed_addr constant [3 x i8] c"..\00", align 1
@.str.63 = private unnamed_addr constant [2 x i8] c"/\00", align 1

; Function Attrs: nounwind sspstrong uwtable
define internal void @file_completion(ptr noundef %mon, ptr noundef %input) #0 {
entry:
  %mon.addr = alloca ptr, align 8
  %input.addr = alloca ptr, align 8
  %ffs = alloca ptr, align 8
  %d = alloca ptr, align 8
  %path = alloca [1024 x i8], align 16
  %file = alloca [1024 x i8], align 16
  %file_prefix = alloca [1024 x i8], align 16
  %input_path_len = alloca i32, align 4
  %p = alloca ptr, align 8
  %sb = alloca %struct.stat, align 8
  store ptr %mon, ptr %mon.addr, align 8
  store ptr %input, ptr %input.addr, align 8
  %0 = load ptr, ptr %input.addr, align 8
  %call = call ptr @strrchr(ptr noundef %0, i32 noundef 47) #13
  store ptr %call, ptr %p, align 8
  %1 = load ptr, ptr %p, align 8
  %tobool = icmp ne ptr %1, null
  br i1 %tobool, label %if.else, label %if.then

if.then:                                          ; preds = %entry
  store i32 0, ptr %input_path_len, align 4
  %arraydecay = getelementptr inbounds [1024 x i8], ptr %file_prefix, i64 0, i64 0
  %2 = load ptr, ptr %input.addr, align 8
  call void @pstrcpy(ptr noundef %arraydecay, i32 noundef 1024, ptr noundef %2)
  %arraydecay1 = getelementptr inbounds [1024 x i8], ptr %path, i64 0, i64 0
  call void @pstrcpy(ptr noundef %arraydecay1, i32 noundef 1024, ptr noundef @.str.61)
  br label %if.end8

if.else:                                          ; preds = %entry
  %3 = load ptr, ptr %p, align 8
  %4 = load ptr, ptr %input.addr, align 8
  %sub.ptr.lhs.cast = ptrtoint ptr %3 to i64
  %sub.ptr.rhs.cast = ptrtoint ptr %4 to i64
  %sub.ptr.sub = sub i64 %sub.ptr.lhs.cast, %sub.ptr.rhs.cast
  %add = add i64 %sub.ptr.sub, 1
  %conv = trunc i64 %add to i32
  store i32 %conv, ptr %input_path_len, align 4
  %arraydecay2 = getelementptr inbounds [1024 x i8], ptr %path, i64 0, i64 0
  %5 = load ptr, ptr %input.addr, align 8
  %6 = load i32, ptr %input_path_len, align 4
  %conv3 = sext i32 %6 to i64
  call void @llvm.memcpy.p0.p0.i64(ptr align 16 %arraydecay2, ptr align 1 %5, i64 %conv3, i1 false)
  %7 = load i32, ptr %input_path_len, align 4
  %conv4 = sext i32 %7 to i64
  %cmp = icmp ugt i64 %conv4, 1023
  br i1 %cmp, label %if.then6, label %if.end

if.then6:                                         ; preds = %if.else
  store i32 1023, ptr %input_path_len, align 4
  br label %if.end

if.end:                                           ; preds = %if.then6, %if.else
  %8 = load i32, ptr %input_path_len, align 4
  %idxprom = sext i32 %8 to i64
  %arrayidx = getelementptr [1024 x i8], ptr %path, i64 0, i64 %idxprom
  store i8 0, ptr %arrayidx, align 1
  %arraydecay7 = getelementptr inbounds [1024 x i8], ptr %file_prefix, i64 0, i64 0
  %9 = load ptr, ptr %p, align 8
  %add.ptr = getelementptr i8, ptr %9, i64 1
  call void @pstrcpy(ptr noundef %arraydecay7, i32 noundef 1024, ptr noundef %add.ptr)
  br label %if.end8

if.end8:                                          ; preds = %if.end, %if.then
  %arraydecay9 = getelementptr inbounds [1024 x i8], ptr %path, i64 0, i64 0
  %call10 = call ptr @opendir(ptr noundef %arraydecay9)
  store ptr %call10, ptr %ffs, align 8
  %10 = load ptr, ptr %ffs, align 8
  %tobool11 = icmp ne ptr %10, null
  br i1 %tobool11, label %if.end13, label %if.then12

if.then12:                                        ; preds = %if.end8
  br label %return

if.end13:                                         ; preds = %if.end8
  br label %for.cond

for.cond:                                         ; preds = %if.end59, %if.then27, %if.end13
  %11 = load ptr, ptr %ffs, align 8
  %call14 = call ptr @readdir64(ptr noundef %11)
  store ptr %call14, ptr %d, align 8
  %12 = load ptr, ptr %d, align 8
  %tobool15 = icmp ne ptr %12, null
  br i1 %tobool15, label %if.end17, label %if.then16

if.then16:                                        ; preds = %for.cond
  br label %for.end

if.end17:                                         ; preds = %for.cond
  %13 = load ptr, ptr %d, align 8
  %d_name = getelementptr inbounds %struct.dirent, ptr %13, i32 0, i32 4
  %arraydecay18 = getelementptr inbounds [256 x i8], ptr %d_name, i64 0, i64 0
  %call19 = call i32 @strcmp(ptr noundef %arraydecay18, ptr noundef @.str.61) #13
  %cmp20 = icmp eq i32 %call19, 0
  br i1 %cmp20, label %if.then27, label %lor.lhs.false

lor.lhs.false:                                    ; preds = %if.end17
  %14 = load ptr, ptr %d, align 8
  %d_name22 = getelementptr inbounds %struct.dirent, ptr %14, i32 0, i32 4
  %arraydecay23 = getelementptr inbounds [256 x i8], ptr %d_name22, i64 0, i64 0
  %call24 = call i32 @strcmp(ptr noundef %arraydecay23, ptr noundef @.str.62) #13
  %cmp25 = icmp eq i32 %call24, 0
  br i1 %cmp25, label %if.then27, label %if.end28

if.then27:                                        ; preds = %lor.lhs.false, %if.end17
  br label %for.cond

if.end28:                                         ; preds = %lor.lhs.false
  %15 = load ptr, ptr %d, align 8
  %d_name29 = getelementptr inbounds %struct.dirent, ptr %15, i32 0, i32 4
  %arraydecay30 = getelementptr inbounds [256 x i8], ptr %d_name29, i64 0, i64 0
  %arraydecay31 = getelementptr inbounds [1024 x i8], ptr %file_prefix, i64 0, i64 0
  %call32 = call i32 @strstart(ptr noundef %arraydecay30, ptr noundef %arraydecay31, ptr noundef null)
  %tobool33 = icmp ne i32 %call32, 0
  br i1 %tobool33, label %if.then34, label %if.end59

if.then34:                                        ; preds = %if.end28
  %arraydecay35 = getelementptr inbounds [1024 x i8], ptr %file, i64 0, i64 0
  %16 = load ptr, ptr %input.addr, align 8
  %17 = load i32, ptr %input_path_len, align 4
  %conv36 = sext i32 %17 to i64
  call void @llvm.memcpy.p0.p0.i64(ptr align 16 %arraydecay35, ptr align 1 %16, i64 %conv36, i1 false)
  %18 = load i32, ptr %input_path_len, align 4
  %conv37 = sext i32 %18 to i64
  %cmp38 = icmp ult i64 %conv37, 1024
  br i1 %cmp38, label %if.then40, label %if.end47

if.then40:                                        ; preds = %if.then34
  %arraydecay41 = getelementptr inbounds [1024 x i8], ptr %file, i64 0, i64 0
  %19 = load i32, ptr %input_path_len, align 4
  %idx.ext = sext i32 %19 to i64
  %add.ptr42 = getelementptr i8, ptr %arraydecay41, i64 %idx.ext
  %20 = load i32, ptr %input_path_len, align 4
  %conv43 = sext i32 %20 to i64
  %sub = sub i64 1024, %conv43
  %conv44 = trunc i64 %sub to i32
  %21 = load ptr, ptr %d, align 8
  %d_name45 = getelementptr inbounds %struct.dirent, ptr %21, i32 0, i32 4
  %arraydecay46 = getelementptr inbounds [256 x i8], ptr %d_name45, i64 0, i64 0
  call void @pstrcpy(ptr noundef %add.ptr42, i32 noundef %conv44, ptr noundef %arraydecay46)
  br label %if.end47

if.end47:                                         ; preds = %if.then40, %if.then34
  %arraydecay48 = getelementptr inbounds [1024 x i8], ptr %file, i64 0, i64 0
  %call49 = call i32 @stat64(ptr noundef %arraydecay48, ptr noundef %sb) #18
  %cmp50 = icmp eq i32 %call49, 0
  br i1 %cmp50, label %land.lhs.true, label %if.end57

land.lhs.true:                                    ; preds = %if.end47
  %st_mode = getelementptr inbounds %struct.stat, ptr %sb, i32 0, i32 3
  %22 = load i32, ptr %st_mode, align 8
  %and = and i32 %22, 61440
  %cmp52 = icmp eq i32 %and, 16384
  br i1 %cmp52, label %if.then54, label %if.end57

if.then54:                                        ; preds = %land.lhs.true
  %arraydecay55 = getelementptr inbounds [1024 x i8], ptr %file, i64 0, i64 0
  %call56 = call ptr @pstrcat(ptr noundef %arraydecay55, i32 noundef 1024, ptr noundef @.str.63)
  br label %if.end57

if.end57:                                         ; preds = %if.then54, %land.lhs.true, %if.end47
  %23 = load ptr, ptr %mon.addr, align 8
  %rs = getelementptr inbounds %struct.MonitorHMP, ptr %23, i32 0, i32 2
  %24 = load ptr, ptr %rs, align 8
  %arraydecay58 = getelementptr inbounds [1024 x i8], ptr %file, i64 0, i64 0
  call void @readline_add_completion(ptr noundef %24, ptr noundef %arraydecay58)
  br label %if.end59

if.end59:                                         ; preds = %if.end57, %if.end28
  br label %for.cond

for.end:                                          ; preds = %if.then16
  %25 = load ptr, ptr %ffs, align 8
  %call60 = call i32 @closedir(ptr noundef %25)
  br label %return

return:                                           ; preds = %for.end, %if.then12
  ret void
}