; Function Attrs: nounwind sspstrong uwtable
define internal fastcc void @file_completion(ptr noundef readonly captures(none) %mon, ptr noundef %input) unnamed_addr #0 {
entry:
  %path = alloca [1024 x i8], align 16
  %file = alloca [1024 x i8], align 16
  %file_prefix = alloca [1024 x i8], align 16
  %sb = alloca %struct.stat, align 8
  %call = tail call ptr @strrchr(ptr noundef nonnull dereferenceable(1) %input, i32 noundef 47) #20
  %tobool.not = icmp eq ptr %call, null
  br i1 %tobool.not, label %if.then, label %if.else

if.then:                                          ; preds = %entry
  call void @pstrcpy(ptr noundef nonnull %file_prefix, i32 noundef 1024, ptr noundef nonnull %input) #19
  call void @pstrcpy(ptr noundef nonnull %path, i32 noundef 1024, ptr noundef nonnull @.str.61) #19
  br label %if.end8

if.else:                                          ; preds = %entry
  %sub.ptr.lhs.cast = ptrtoint ptr %call to i64
  %sub.ptr.rhs.cast = ptrtoint ptr %input to i64
  %sub.ptr.sub = sub i64 %sub.ptr.lhs.cast, %sub.ptr.rhs.cast
  %0 = trunc i64 %sub.ptr.sub to i32
  %conv = add i32 %0, 1
  %conv3 = sext i32 %conv to i64
  call void @llvm.memcpy.p0.p0.i64(ptr nonnull align 16 %path, ptr nonnull align 1 %input, i64 %conv3, i1 false)
  %spec.store.select = tail call i32 @llvm.umin.i32(i32 %conv, i32 1023)
  %idxprom = zext nneg i32 %spec.store.select to i64
  %arrayidx = getelementptr [1024 x i8], ptr %path, i64 0, i64 %idxprom
  store i8 0, ptr %arrayidx, align 1
  %add.ptr = getelementptr i8, ptr %call, i64 1
  call void @pstrcpy(ptr noundef nonnull %file_prefix, i32 noundef 1024, ptr noundef %add.ptr) #19
  br label %if.end8

if.end8:                                          ; preds = %if.else, %if.then
  %input_path_len.0 = phi i64 [ %idxprom, %if.else ], [ 0, %if.then ]
  %call10 = call ptr @opendir(ptr noundef nonnull %path)
  %tobool11.not = icmp eq ptr %call10, null
  br i1 %tobool11.not, label %return, label %for.cond.preheader

for.cond.preheader:                               ; preds = %if.end8
  %call1422 = call ptr @readdir64(ptr noundef nonnull %call10) #19
  %tobool15.not23 = icmp eq ptr %call1422, null
  br i1 %tobool15.not23, label %for.end, label %if.end17.lr.ph

if.end17.lr.ph:                                   ; preds = %for.cond.preheader
  %add.ptr42 = getelementptr i8, ptr %file, i64 %input_path_len.0
  %1 = trunc nuw nsw i64 %input_path_len.0 to i32
  %conv44 = sub nuw nsw i32 1024, %1
  %st_mode = getelementptr inbounds nuw i8, ptr %sb, i64 24
  %rs = getelementptr inbounds nuw i8, ptr %mon, i64 176
  br label %if.end17

if.end17:                                         ; preds = %if.end17.lr.ph, %for.cond.backedge
  %call1424 = phi ptr [ %call1422, %if.end17.lr.ph ], [ %call14, %for.cond.backedge ]
  %d_name = getelementptr inbounds nuw i8, ptr %call1424, i64 19
  %2 = load i8, ptr %d_name, align 1
  %.not = icmp eq i8 %2, 46
  br i1 %.not, label %if.end17.tail, label %if.end28

if.end17.tail:                                    ; preds = %if.end17
  %3 = getelementptr inbounds nuw i8, ptr %call1424, i64 20
  %4 = load i8, ptr %3, align 1
  %5 = icmp eq i8 %4, 0
  br i1 %5, label %for.cond.backedge, label %sub_120

sub_120:                                          ; preds = %if.end17.tail
  %6 = getelementptr inbounds nuw i8, ptr %call1424, i64 20
  %7 = load i8, ptr %6, align 1
  %.not26 = icmp eq i8 %7, 46
  br i1 %.not26, label %lor.lhs.false.tail, label %if.end28

lor.lhs.false.tail:                               ; preds = %sub_120
  %8 = getelementptr inbounds nuw i8, ptr %call1424, i64 21
  %9 = load i8, ptr %8, align 1
  %10 = icmp eq i8 %9, 0
  br i1 %10, label %for.cond.backedge, label %if.end28

for.cond.backedge:                                ; preds = %if.end28, %if.end57, %if.end17.tail, %lor.lhs.false.tail
  %call14 = call ptr @readdir64(ptr noundef nonnull %call10) #19
  %tobool15.not = icmp eq ptr %call14, null
  br i1 %tobool15.not, label %for.end, label %if.end17

if.end28:                                         ; preds = %if.end17, %sub_120, %lor.lhs.false.tail
  %call32 = call i32 @strstart(ptr noundef nonnull %d_name, ptr noundef nonnull %file_prefix, ptr noundef null) #19
  %tobool33.not = icmp eq i32 %call32, 0
  br i1 %tobool33.not, label %for.cond.backedge, label %if.then34

if.then34:                                        ; preds = %if.end28
  call void @llvm.memcpy.p0.p0.i64(ptr nonnull align 16 %file, ptr nonnull align 1 %input, i64 %input_path_len.0, i1 false)
  call void @pstrcpy(ptr noundef %add.ptr42, i32 noundef %conv44, ptr noundef nonnull %d_name) #19
  %call49 = call i32 @stat64(ptr noundef nonnull %file, ptr noundef nonnull %sb) #19
  %cmp50 = icmp eq i32 %call49, 0
  br i1 %cmp50, label %land.lhs.true, label %if.end57

land.lhs.true:                                    ; preds = %if.then34
  %11 = load i32, ptr %st_mode, align 8
  %and = and i32 %11, 61440
  %cmp52 = icmp eq i32 %and, 16384
  br i1 %cmp52, label %if.then54, label %if.end57

if.then54:                                        ; preds = %land.lhs.true
  %call56 = call ptr @pstrcat(ptr noundef nonnull %file, i32 noundef 1024, ptr noundef nonnull @.str.63) #19
  br label %if.end57

if.end57:                                         ; preds = %if.then54, %land.lhs.true, %if.then34
  %12 = load ptr, ptr %rs, align 8
  call void @readline_add_completion(ptr noundef %12, ptr noundef nonnull %file) #19
  br label %for.cond.backedge

for.end:                                          ; preds = %for.cond.backedge, %for.cond.preheader
  %call60 = call i32 @closedir(ptr noundef nonnull %call10)
  br label %return

return:                                           ; preds = %if.end8, %for.end
  ret void
}